; Function Attrs: nounwind uwtable
define internal i32 @process_frame(ptr noundef readonly captures(none) %0) #3 {
  %2 = alloca ptr, align 8
  %3 = alloca ptr, align 8
  %4 = alloca ptr, align 8
  %5 = alloca %struct.ThreadData, align 8
  %6 = getelementptr inbounds nuw i8, ptr %0, i64 8
  %7 = load ptr, ptr %6, align 8, !tbaa !73
  %8 = getelementptr inbounds nuw i8, ptr %0, i64 48
  %9 = load ptr, ptr %8, align 8, !tbaa !74
  %10 = getelementptr inbounds nuw i8, ptr %7, i64 56
  %11 = load ptr, ptr %10, align 8, !tbaa !75
  %12 = load ptr, ptr %11, align 8, !tbaa !60
  call void @llvm.lifetime.start.p0(i64 8, ptr nonnull %2) #9
  call void @llvm.lifetime.start.p0(i64 8, ptr nonnull %3) #9
  call void @llvm.lifetime.start.p0(i64 8, ptr nonnull %4) #9
  %13 = getelementptr inbounds nuw i8, ptr %9, i64 72
  %14 = call i32 @ff_framesync_get_frame(ptr noundef nonnull %13, i32 noundef 0, ptr noundef nonnull %2, i32 noundef 0) #9
  %15 = icmp slt i32 %14, 0
  br i1 %15, label %57, label %16

16:                                               ; preds = %1
  %17 = call i32 @ff_framesync_get_frame(ptr noundef nonnull %13, i32 noundef 1, ptr noundef nonnull %3, i32 noundef 0) #9
  %18 = icmp slt i32 %17, 0
  br i1 %18, label %57, label %19

19:                                               ; preds = %16
  %20 = call i32 @ff_framesync_get_frame(ptr noundef nonnull %13, i32 noundef 2, ptr noundef nonnull %4, i32 noundef 0) #9
  %21 = icmp slt i32 %20, 0
  br i1 %21, label %57, label %22

22:                                               ; preds = %19
  %23 = getelementptr inbounds nuw i8, ptr %7, i64 128
  %24 = load i32, ptr %23, align 8, !tbaa !76
  %.not = icmp eq i32 %24, 0
  br i1 %.not, label %28, label %25

25:                                               ; preds = %22
  %26 = load ptr, ptr %2, align 8, !tbaa !77
  %27 = call ptr @av_frame_clone(ptr noundef %26) #9
  %.not38 = icmp eq ptr %27, null
  br i1 %.not38, label %57, label %47

28:                                               ; preds = %22
  call void @llvm.lifetime.start.p0(i64 32, ptr nonnull %5) #9
  %29 = getelementptr inbounds nuw i8, ptr %12, i64 40
  %30 = load i32, ptr %29, align 8, !tbaa !36
  %31 = getelementptr inbounds nuw i8, ptr %12, i64 44
  %32 = load i32, ptr %31, align 4, !tbaa !39
  %33 = call ptr @ff_get_video_buffer(ptr noundef %12, i32 noundef %30, i32 noundef %32) #9
  %.not37.not = icmp eq ptr %33, null
  br i1 %.not37.not, label %.critedge, label %34

34:                                               ; preds = %28
  %35 = load ptr, ptr %2, align 8, !tbaa !77
  %36 = call i32 @av_frame_copy_props(ptr noundef nonnull %33, ptr noundef %35) #9
  %37 = load ptr, ptr %2, align 8, !tbaa !77
  store ptr %37, ptr %5, align 8, !tbaa !78
  %38 = load ptr, ptr %3, align 8, !tbaa !77
  %39 = getelementptr inbounds nuw i8, ptr %5, i64 8
  store ptr %38, ptr %39, align 8, !tbaa !80
  %40 = load ptr, ptr %4, align 8, !tbaa !77
  %41 = getelementptr inbounds nuw i8, ptr %5, i64 16
  store ptr %40, ptr %41, align 8, !tbaa !81
  %42 = getelementptr inbounds nuw i8, ptr %5, i64 24
  store ptr %33, ptr %42, align 8, !tbaa !82
  %43 = getelementptr inbounds nuw i8, ptr %9, i64 48
  %44 = load i32, ptr %43, align 8, !tbaa !41
  %45 = call i32 @ff_filter_get_nb_threads(ptr noundef nonnull %7) #10
  %. = call i32 @llvm.smin.i32(i32 %44, i32 %45)
  %46 = call i32 @ff_filter_execute(ptr noundef nonnull %7, ptr noundef nonnull @maskedminmax_slice, ptr noundef nonnull %5, ptr noundef null, i32 noundef %.) #9
  call void @llvm.lifetime.end.p0(i64 32, ptr nonnull %5) #9
  br label %47

47:                                               ; preds = %34, %25
  %.028 = phi ptr [ %27, %25 ], [ %33, %34 ]
  %48 = getelementptr inbounds nuw i8, ptr %9, i64 104
  %49 = load i64, ptr %48, align 8, !tbaa !83
  %50 = getelementptr inbounds nuw i8, ptr %9, i64 92
  %51 = getelementptr inbounds nuw i8, ptr %12, i64 96
  %52 = load i64, ptr %50, align 4
  %53 = load i64, ptr %51, align 8
  %54 = call i64 @av_rescale_q(i64 noundef %49, i64 %52, i64 %53) #11
  %55 = getelementptr inbounds nuw i8, ptr %.028, i64 136
  store i64 %54, ptr %55, align 8, !tbaa !84
  %56 = call i32 @ff_filter_frame(ptr noundef %12, ptr noundef nonnull %.028) #9
  br label %57

.critedge:                                        ; preds = %28
  call void @llvm.lifetime.end.p0(i64 32, ptr nonnull %5) #9
  br label %57

57:                                               ; preds = %.critedge, %25, %1, %16, %19, %47
  %.029 = phi i32 [ %56, %47 ], [ %14, %1 ], [ %17, %16 ], [ %20, %19 ], [ -12, %25 ], [ -12, %.critedge ]
  call void @llvm.lifetime.end.p0(i64 8, ptr nonnull %4) #9
  call void @llvm.lifetime.end.p0(i64 8, ptr nonnull %3) #9
  call void @llvm.lifetime.end.p0(i64 8, ptr nonnull %2) #9
  ret i32 %.029
}